; Function Attrs: mustprogress nofree norecurse nosync nounwind willreturn memory(read, argmem: write, inaccessiblemem: none) uwtable
define hidden void @_ZN3sat11npn3_finder7ternaryC2Ev(ptr nocapture noundef nonnull writeonly align 8 dereferenceable(24) %this) unnamed_addr #5 align 2 {
entry:
  %.b = load i1, ptr @_ZN3satL12null_literalE.0, align 4
  %0 = select i1 %.b, i32 -2, i32 0
  store i32 %0, ptr %this, align 8
  %y = getelementptr inbounds i8, ptr %this, i64 4
  store i32 %0, ptr %y, align 4
  %z = getelementptr inbounds i8, ptr %this, i64 8
  store i32 %0, ptr %z, align 8
  %orig = getelementptr inbounds i8, ptr %this, i64 16
  store ptr null, ptr %orig, align 8
  ret void
}